target datalayout = "e-m:e-p270:32:32-p271:32:32-p272:64:64-i64:64-i128:128-f80:128-n8:16:32:64-S128"
target triple = "x86_64-pc-linux-gnu"

%"struct.google::protobuf::internal::ArenaImpl::ThreadCache" = type { i64, i64, ptr, [40 x i8] }
%"class.google::protobuf::internal::SerialArena" = type { ptr, ptr, ptr, ptr, ptr, ptr, ptr, ptr, ptr }
%"struct.google::protobuf::internal::SerialArena::CleanupNode" = type { ptr, ptr }

@_ZN6google8protobuf8internal9ArenaImpl13thread_cache_E = thread_local global %"struct.google::protobuf::internal::ArenaImpl::ThreadCache" { i64 0, i64 -1, ptr null, [40 x i8] undef }, align 64

; Function Attrs: mustprogress uwtable
define linkonce_odr void @_ZN6google8protobuf8internal11SerialArena10AddCleanupEPvPFvS3_E(ptr noundef nonnull align 8 dereferenceable(72) %0, ptr noundef %1, ptr noundef %2) #7 comdat align 2 {
  %4 = alloca ptr, align 8
  %5 = alloca ptr, align 8
  %6 = alloca ptr, align 8
  store ptr %0, ptr %4, align 8, !tbaa !62
  store ptr %1, ptr %5, align 8, !tbaa !3
  store ptr %2, ptr %6, align 8, !tbaa !3
  %7 = load ptr, ptr %4, align 8
  %8 = getelementptr inbounds nuw %"class.google::protobuf::internal::SerialArena", ptr %7, i32 0, i32 7
  %9 = load ptr, ptr %8, align 8, !tbaa !79
  %10 = getelementptr inbounds nuw %"class.google::protobuf::internal::SerialArena", ptr %7, i32 0, i32 8
  %11 = load ptr, ptr %10, align 8, !tbaa !80
  %12 = icmp eq ptr %9, %11
  %13 = zext i1 %12 to i64
  %14 = call i64 @llvm.expect.i64(i64 %13, i64 0)
  %15 = icmp ne i64 %14, 0
  br i1 %15, label %16, label %19

16:                                               ; preds = %3
  %17 = load ptr, ptr %5, align 8, !tbaa !3
  %18 = load ptr, ptr %6, align 8, !tbaa !3
  call void @_ZN6google8protobuf8internal11SerialArena18AddCleanupFallbackEPvPFvS3_E(ptr noundef nonnull align 8 dereferenceable(72) %7, ptr noundef %17, ptr noundef %18)
  br label %31

19:                                               ; preds = %3
  %20 = load ptr, ptr %5, align 8, !tbaa !3
  %21 = getelementptr inbounds nuw %"class.google::protobuf::internal::SerialArena", ptr %7, i32 0, i32 7
  %22 = load ptr, ptr %21, align 8, !tbaa !79
  %23 = getelementptr inbounds nuw %"struct.google::protobuf::internal::SerialArena::CleanupNode", ptr %22, i32 0, i32 0
  store ptr %20, ptr %23, align 8, !tbaa !111
  %24 = load ptr, ptr %6, align 8, !tbaa !3
  %25 = getelementptr inbounds nuw %"class.google::protobuf::internal::SerialArena", ptr %7, i32 0, i32 7
  %26 = load ptr, ptr %25, align 8, !tbaa !79
  %27 = getelementptr inbounds nuw %"struct.google::protobuf::internal::SerialArena::CleanupNode", ptr %26, i32 0, i32 1
  store ptr %24, ptr %27, align 8, !tbaa !113
  %28 = getelementptr inbounds nuw %"class.google::protobuf::internal::SerialArena", ptr %7, i32 0, i32 7
  %29 = load ptr, ptr %28, align 8, !tbaa !79
  %30 = getelementptr inbounds nuw %"struct.google::protobuf::internal::SerialArena::CleanupNode", ptr %29, i32 1
  store ptr %30, ptr %28, align 8, !tbaa !79
  br label %31

31:                                               ; preds = %19, %16
  ret void
}

; Function Attrs: mustprogress nounwind uwtable
define linkonce_odr noundef nonnull align 64 dereferenceable(64) ptr @_ZN6google8protobuf8internal9ArenaImpl12thread_cacheEv() #5 comdat align 2 {
  %1 = call align 64 ptr @llvm.threadlocal.address.p0(ptr align 64 @_ZN6google8protobuf8internal9ArenaImpl13thread_cache_E)
  ret ptr %1
}

; Function Attrs: mustprogress noinline uwtable
define void @_ZN6google8protobuf8internal9ArenaImpl18AddCleanupFallbackEPvPFvS3_E(ptr noundef nonnull align 8 dereferenceable(40) %0, ptr noundef %1, ptr noundef %2) #13 align 2 {
  %4 = alloca ptr, align 8
  %5 = alloca ptr, align 8
  %6 = alloca ptr, align 8
  store ptr %0, ptr %4, align 8, !tbaa !9
  store ptr %1, ptr %5, align 8, !tbaa !3
  store ptr %2, ptr %6, align 8, !tbaa !3
  %7 = load ptr, ptr %4, align 8
  %8 = call noundef nonnull align 64 dereferenceable(64) ptr @_ZN6google8protobuf8internal9ArenaImpl12thread_cacheEv()
  %9 = call noundef ptr @_ZN6google8protobuf8internal9ArenaImpl22GetSerialArenaFallbackEPv(ptr noundef nonnull align 8 dereferenceable(40) %7, ptr noundef %8)
  %10 = load ptr, ptr %5, align 8, !tbaa !3
  %11 = load ptr, ptr %6, align 8, !tbaa !3
  call void @_ZN6google8protobuf8internal11SerialArena10AddCleanupEPvPFvS3_E(ptr noundef nonnull align 8 dereferenceable(72) %9, ptr noundef %10, ptr noundef %11)
  ret void
}