; Function Attrs: mustprogress noinline uwtable
define void @_ZN6google8protobuf8internal9ArenaImpl18AddCleanupFallbackEPvPFvS3_E(ptr noundef nonnull align 8 dereferenceable(40) %0, ptr noundef %1, ptr noundef %2) local_unnamed_addr #14 align 2 {
  %4 = tail call noundef nonnull align 64 dereferenceable(64) ptr @llvm.threadlocal.address.p0(ptr align 64 @_ZN6google8protobuf8internal9ArenaImpl13thread_cache_E)
  %5 = tail call noundef ptr @_ZN6google8protobuf8internal9ArenaImpl22GetSerialArenaFallbackEPv(ptr noundef nonnull align 8 dereferenceable(40) %0, ptr noundef nonnull %4)
  %6 = getelementptr inbounds nuw i8, ptr %5, i64 56
  %7 = load ptr, ptr %6, align 8, !tbaa !54
  %8 = getelementptr inbounds nuw i8, ptr %5, i64 64
  %9 = load ptr, ptr %8, align 8, !tbaa !69
  %10 = icmp eq ptr %7, %9
  br i1 %10, label %11, label %12, !prof !39

11:                                               ; preds = %3
  tail call void @_ZN6google8protobuf8internal11SerialArena18AddCleanupFallbackEPvPFvS3_E(ptr noundef nonnull align 8 dereferenceable(72) %5, ptr noundef %1, ptr noundef %2)
  br label %_ZN6google8protobuf8internal11SerialArena10AddCleanupEPvPFvS3_E.exit

12:                                               ; preds = %3
  store ptr %1, ptr %7, align 8, !tbaa !59
  %13 = getelementptr inbounds nuw i8, ptr %7, i64 8
  store ptr %2, ptr %13, align 8, !tbaa !57
  %14 = getelementptr inbounds nuw i8, ptr %7, i64 16
  store ptr %14, ptr %6, align 8, !tbaa !54
  br label %_ZN6google8protobuf8internal11SerialArena10AddCleanupEPvPFvS3_E.exit

_ZN6google8protobuf8internal11SerialArena10AddCleanupEPvPFvS3_E.exit: ; preds = %11, %12
  ret void
}